target datalayout = "e-m:e-p270:32:32-p271:32:32-p272:64:64-i64:64-i128:128-f80:128-n8:16:32:64-S128"
target triple = "x86_64-pc-linux-gnu"

@gv_sort_compar = internal thread_local global ptr null, align 8
@gv_sort_arg = internal thread_local global ptr null, align 8

; Function Attrs: inlinehint nounwind uwtable
define internal void @gv_sort(ptr noundef %0, i64 noundef %1, i64 noundef %2, ptr noundef %3, ptr noundef %4) #4 {
  %6 = alloca ptr, align 8
  %7 = alloca i64, align 8
  %8 = alloca i64, align 8
  %9 = alloca ptr, align 8
  %10 = alloca ptr, align 8
  store ptr %0, ptr %6, align 8, !tbaa !3
  store i64 %1, ptr %7, align 8, !tbaa !11
  store i64 %2, ptr %8, align 8, !tbaa !11
  store ptr %3, ptr %9, align 8, !tbaa !3
  store ptr %4, ptr %10, align 8, !tbaa !3
  %11 = load ptr, ptr %9, align 8, !tbaa !3
  %12 = call align 8 ptr @llvm.threadlocal.address.p0(ptr align 8 @gv_sort_compar)
  store ptr %11, ptr %12, align 8, !tbaa !3
  %13 = load ptr, ptr %10, align 8, !tbaa !3
  %14 = call align 8 ptr @llvm.threadlocal.address.p0(ptr align 8 @gv_sort_arg)
  store ptr %13, ptr %14, align 8, !tbaa !3
  %15 = load i64, ptr %7, align 8, !tbaa !11
  %16 = icmp ugt i64 %15, 1
  br i1 %16, label %17, label %21

17:                                               ; preds = %5
  %18 = load ptr, ptr %6, align 8, !tbaa !3
  %19 = load i64, ptr %7, align 8, !tbaa !11
  %20 = load i64, ptr %8, align 8, !tbaa !11
  call void @qsort(ptr noundef %18, i64 noundef %19, i64 noundef %20, ptr noundef @gv_sort_compar_wrapper)
  br label %21

21:                                               ; preds = %17, %5
  %22 = call align 8 ptr @llvm.threadlocal.address.p0(ptr align 8 @gv_sort_compar)
  store ptr null, ptr %22, align 8, !tbaa !3
  %23 = call align 8 ptr @llvm.threadlocal.address.p0(ptr align 8 @gv_sort_arg)
  store ptr null, ptr %23, align 8, !tbaa !3
  ret void
}

; Function Attrs: nounwind uwtable
define void @quicksort_place(ptr noundef %0, ptr noundef %1, i32 noundef %2) #0 {
  %4 = alloca ptr, align 8
  %5 = alloca ptr, align 8
  %6 = alloca i32, align 4
  store ptr %0, ptr %4, align 8, !tbaa !39
  store ptr %1, ptr %5, align 8, !tbaa !9
  store i32 %2, ptr %6, align 4, !tbaa !7
  %7 = load ptr, ptr %5, align 8, !tbaa !9
  %8 = load i32, ptr %6, align 4, !tbaa !7
  %9 = sext i32 %8 to i64
  %10 = load ptr, ptr %4, align 8, !tbaa !39
  call void @gv_sort(ptr noundef %7, i64 noundef %9, i64 noundef 4, ptr noundef @cmp, ptr noundef %10)
  ret void
}