; Function Attrs: nofree nounwind uwtable
define void @quicksort_place(ptr noundef %0, ptr noundef %1, i32 noundef %2) local_unnamed_addr #6 {
  %4 = tail call align 8 ptr @llvm.threadlocal.address.p0(ptr align 8 @gv_sort_compar)
  store ptr @cmp, ptr %4, align 8, !tbaa !37
  %5 = tail call align 8 ptr @llvm.threadlocal.address.p0(ptr align 8 @gv_sort_arg)
  store ptr %0, ptr %5, align 8, !tbaa !37
  %6 = icmp ugt i32 %2, 1
  br i1 %6, label %7, label %gv_sort.exit

7:                                                ; preds = %3
  %8 = sext i32 %2 to i64
  tail call void @qsort(ptr noundef %1, i64 noundef range(i64 -2147483648, 2147483648) %8, i64 noundef 4, ptr noundef nonnull @gv_sort_compar_wrapper) #20
  br label %gv_sort.exit

gv_sort.exit:                                     ; preds = %3, %7
  store ptr null, ptr %4, align 8, !tbaa !37
  store ptr null, ptr %5, align 8, !tbaa !37
  ret void
}